target datalayout = "e-m:e-p270:32:32-p271:32:32-p272:64:64-i64:64-i128:128-f80:128-n8:16:32:64-S128"
target triple = "x86_64-pc-linux-gnu"

%"class.gmx::ArrayRef" = type { %"struct.gmx::ArrayRefIter", %"struct.gmx::ArrayRefIter" }
%"struct.gmx::ArrayRefIter" = type { ptr }

; Function Attrs: mustprogress nounwind uwtable
define linkonce_odr noundef i64 @_ZNK3gmx12ArrayRefIterIKfEmiES2_(ptr noundef nonnull align 8 dereferenceable(8) %0, ptr %1) #4 comdat align 2 {
  %3 = alloca %"struct.gmx::ArrayRefIter", align 8
  %4 = alloca ptr, align 8
  %5 = getelementptr inbounds nuw %"struct.gmx::ArrayRefIter", ptr %3, i32 0, i32 0
  store ptr %1, ptr %5, align 8
  store ptr %0, ptr %4, align 8, !tbaa !19
  %6 = load ptr, ptr %4, align 8
  %7 = getelementptr inbounds nuw %"struct.gmx::ArrayRefIter", ptr %6, i32 0, i32 0
  %8 = load ptr, ptr %7, align 8, !tbaa !21
  %9 = getelementptr inbounds nuw %"struct.gmx::ArrayRefIter", ptr %3, i32 0, i32 0
  %10 = load ptr, ptr %9, align 8, !tbaa !21
  %11 = ptrtoint ptr %8 to i64
  %12 = ptrtoint ptr %10 to i64
  %13 = sub i64 %11, %12
  %14 = sdiv exact i64 %13, 4
  ret i64 %14
}

; Function Attrs: mustprogress nounwind uwtable
define linkonce_odr noundef i64 @_ZN3gmx5boost14stl_interfaces6detail11common_diffINS_12ArrayRefIterIKfEES6_EEDTmiscNSt11conditionalIXsr3std14is_convertibleIT_T0_EE5valueES9_S8_E4typeEfp_scSB_fp0_ES8_S9_(ptr %0, ptr %1) #4 comdat {
  %3 = alloca %"struct.gmx::ArrayRefIter", align 8
  %4 = alloca %"struct.gmx::ArrayRefIter", align 8
  %5 = alloca %"struct.gmx::ArrayRefIter", align 8
  %6 = alloca %"struct.gmx::ArrayRefIter", align 8
  %7 = getelementptr inbounds nuw %"struct.gmx::ArrayRefIter", ptr %3, i32 0, i32 0
  store ptr %0, ptr %7, align 8
  %8 = getelementptr inbounds nuw %"struct.gmx::ArrayRefIter", ptr %4, i32 0, i32 0
  store ptr %1, ptr %8, align 8
  call void @llvm.lifetime.start.p0(i64 8, ptr %5) #9
  call void @llvm.memcpy.p0.p0.i64(ptr align 8 %5, ptr align 8 %3, i64 8, i1 false)
  call void @llvm.memcpy.p0.p0.i64(ptr align 8 %6, ptr align 8 %4, i64 8, i1 false)
  %9 = getelementptr inbounds nuw %"struct.gmx::ArrayRefIter", ptr %6, i32 0, i32 0
  %10 = load ptr, ptr %9, align 8
  %11 = call noundef i64 @_ZNK3gmx12ArrayRefIterIKfEmiES2_(ptr noundef nonnull align 8 dereferenceable(8) %5, ptr %10) #9
  call void @llvm.lifetime.end.p0(i64 8, ptr %5) #9
  ret i64 %11
}

; Function Attrs: mustprogress nounwind uwtable
define linkonce_odr noundef nonnull align 8 dereferenceable(8) ptr @_ZN3gmx12ArrayRefIterIKfEpLEl(ptr noundef nonnull align 8 dereferenceable(8) %0, i64 noundef %1) #4 comdat align 2 {
  %3 = alloca ptr, align 8
  %4 = alloca i64, align 8
  store ptr %0, ptr %3, align 8, !tbaa !19
  store i64 %1, ptr %4, align 8, !tbaa !25
  %5 = load ptr, ptr %3, align 8
  %6 = load i64, ptr %4, align 8, !tbaa !25
  %7 = getelementptr inbounds nuw %"struct.gmx::ArrayRefIter", ptr %5, i32 0, i32 0
  %8 = load ptr, ptr %7, align 8, !tbaa !21
  %9 = getelementptr inbounds float, ptr %8, i64 %6
  store ptr %9, ptr %7, align 8, !tbaa !21
  ret ptr %5
}

; Function Attrs: mustprogress nounwind uwtable
define linkonce_odr noundef nonnull align 8 dereferenceable(8) ptr @_ZN3gmx5boost14stl_interfaces2v118iterator_interfaceINS_12ArrayRefIterIKfEESt26random_access_iterator_tagS5_RS5_PS5_lvE7derivedEv(ptr noundef nonnull align 1 dereferenceable(1) %0) #4 comdat align 2 {
  %2 = alloca ptr, align 8
  store ptr %0, ptr %2, align 8, !tbaa !23
  %3 = load ptr, ptr %2, align 8
  ret ptr %3
}

; Function Attrs: inlinehint mustprogress nounwind uwtable
define linkonce_odr noundef nonnull align 8 dereferenceable(8) ptr @_ZSt3maxIdERKT_S2_S2_(ptr noundef nonnull align 8 dereferenceable(8) %0, ptr noundef nonnull align 8 dereferenceable(8) %1) #3 comdat {
  %3 = alloca ptr, align 8
  %4 = alloca ptr, align 8
  %5 = alloca ptr, align 8
  store ptr %0, ptr %4, align 8, !tbaa !10
  store ptr %1, ptr %5, align 8, !tbaa !10
  %6 = load ptr, ptr %4, align 8, !tbaa !10
  %7 = load double, ptr %6, align 8, !tbaa !4
  %8 = load ptr, ptr %5, align 8, !tbaa !10
  %9 = load double, ptr %8, align 8, !tbaa !4
  %10 = fcmp olt double %7, %9
  br i1 %10, label %11, label %13

11:                                               ; preds = %2
  %12 = load ptr, ptr %5, align 8, !tbaa !10
  store ptr %12, ptr %3, align 8
  br label %15

13:                                               ; preds = %2
  %14 = load ptr, ptr %4, align 8, !tbaa !10
  store ptr %14, ptr %3, align 8
  br label %15

15:                                               ; preds = %13, %11
  %16 = load ptr, ptr %3, align 8
  ret ptr %16
}

; Function Attrs: mustprogress nounwind uwtable
define linkonce_odr noundef zeroext i1 @_ZN3gmx5boost14stl_interfaces2v1eqINS_12ArrayRefIterIKfEES6_vEEDTcmclsr6v1_dtlE16derived_iteratorfp_Eeqclsr6detailE11common_difffp_fp0_ELi0EET_T0_(ptr %0, ptr %1) #4 comdat {
  %3 = alloca %"struct.gmx::ArrayRefIter", align 8
  %4 = alloca %"struct.gmx::ArrayRefIter", align 8
  %5 = alloca %"struct.gmx::ArrayRefIter", align 8
  %6 = alloca %"struct.gmx::ArrayRefIter", align 8
  %7 = getelementptr inbounds nuw %"struct.gmx::ArrayRefIter", ptr %3, i32 0, i32 0
  store ptr %0, ptr %7, align 8
  %8 = getelementptr inbounds nuw %"struct.gmx::ArrayRefIter", ptr %4, i32 0, i32 0
  store ptr %1, ptr %8, align 8
  call void @llvm.memcpy.p0.p0.i64(ptr align 8 %5, ptr align 8 %3, i64 8, i1 false)
  call void @llvm.memcpy.p0.p0.i64(ptr align 8 %6, ptr align 8 %4, i64 8, i1 false)
  %9 = getelementptr inbounds nuw %"struct.gmx::ArrayRefIter", ptr %5, i32 0, i32 0
  %10 = load ptr, ptr %9, align 8
  %11 = getelementptr inbounds nuw %"struct.gmx::ArrayRefIter", ptr %6, i32 0, i32 0
  %12 = load ptr, ptr %11, align 8
  %13 = call noundef i64 @_ZN3gmx5boost14stl_interfaces6detail11common_diffINS_12ArrayRefIterIKfEES6_EEDTmiscNSt11conditionalIXsr3std14is_convertibleIT_T0_EE5valueES9_S8_E4typeEfp_scSB_fp0_ES8_S9_(ptr %10, ptr %12) #9
  %14 = icmp eq i64 %13, 0
  ret i1 %14
}

; Function Attrs: mustprogress nounwind uwtable
define linkonce_odr noundef nonnull align 8 dereferenceable(8) ptr @_ZN3gmx5boost14stl_interfaces2v118iterator_interfaceINS_12ArrayRefIterIKfEESt26random_access_iterator_tagS5_RS5_PS5_lvEppIS6_EEDTcmpLclsr3stdE7declvalIRT_EEcvlLi1Eclsr3stdE7declvalISD_EEEv(ptr noundef nonnull align 1 dereferenceable(1) %0) #4 comdat align 2 {
  %2 = alloca ptr, align 8
  store ptr %0, ptr %2, align 8, !tbaa !23
  %3 = load ptr, ptr %2, align 8
  %4 = call noundef nonnull align 8 dereferenceable(8) ptr @_ZN3gmx5boost14stl_interfaces2v118iterator_interfaceINS_12ArrayRefIterIKfEESt26random_access_iterator_tagS5_RS5_PS5_lvE7derivedEv(ptr noundef nonnull align 1 dereferenceable(1) %3) #9
  %5 = call noundef nonnull align 8 dereferenceable(8) ptr @_ZN3gmx12ArrayRefIterIKfEpLEl(ptr noundef nonnull align 8 dereferenceable(8) %4, i64 noundef 1) #9
  %6 = call noundef nonnull align 8 dereferenceable(8) ptr @_ZN3gmx5boost14stl_interfaces2v118iterator_interfaceINS_12ArrayRefIterIKfEESt26random_access_iterator_tagS5_RS5_PS5_lvE7derivedEv(ptr noundef nonnull align 1 dereferenceable(1) %3) #9
  ret ptr %6
}

; Function Attrs: mustprogress uwtable
define noundef double @_Z21eigenvalueToFrequencyd(double noundef %0) #0 {
  %2 = alloca double, align 8
  %3 = alloca double, align 8
  %4 = alloca double, align 8
  store double %0, ptr %2, align 8, !tbaa !4
  call void @llvm.lifetime.start.p0(i64 8, ptr %3) #9
  store double 0x44EA78437A00E75D, ptr %3, align 8, !tbaa !4
  call void @llvm.lifetime.start.p0(i64 8, ptr %4) #9
  store double 0.000000e+00, ptr %4, align 8, !tbaa !4
  %5 = call noundef nonnull align 8 dereferenceable(8) ptr @_ZSt3maxIdERKT_S2_S2_(ptr noundef nonnull align 8 dereferenceable(8) %4, ptr noundef nonnull align 8 dereferenceable(8) %2)
  %6 = load double, ptr %5, align 8, !tbaa !4
  %7 = load double, ptr %3, align 8, !tbaa !4
  %8 = fmul double %6, %7
  %9 = call double @sqrt(double noundef %8) #9, !tbaa !8
  call void @llvm.lifetime.end.p0(i64 8, ptr %4) #9
  call void @llvm.lifetime.end.p0(i64 8, ptr %3) #9
  ret double %9
}

; Function Attrs: mustprogress nounwind uwtable
define linkonce_odr noundef nonnull align 4 dereferenceable(4) ptr @_ZNK3gmx12ArrayRefIterIKfEdeEv(ptr noundef nonnull align 8 dereferenceable(8) %0) #4 comdat align 2 {
  %2 = alloca ptr, align 8
  store ptr %0, ptr %2, align 8, !tbaa !19
  %3 = load ptr, ptr %2, align 8
  %4 = getelementptr inbounds nuw %"struct.gmx::ArrayRefIter", ptr %3, i32 0, i32 0
  %5 = load ptr, ptr %4, align 8, !tbaa !21
  ret ptr %5
}

; Function Attrs: mustprogress nounwind uwtable
define linkonce_odr noundef zeroext i1 @_ZN3gmx5boost14stl_interfaces2v1neINS_12ArrayRefIterIKfEES6_EEDTcmclsr6v1_dtlE16derived_iteratorfp_Enteqfp_fp0_ET_T0_(ptr %0, ptr %1) #4 comdat {
  %3 = alloca %"struct.gmx::ArrayRefIter", align 8
  %4 = alloca %"struct.gmx::ArrayRefIter", align 8
  %5 = alloca %"struct.gmx::ArrayRefIter", align 8
  %6 = alloca %"struct.gmx::ArrayRefIter", align 8
  %7 = getelementptr inbounds nuw %"struct.gmx::ArrayRefIter", ptr %3, i32 0, i32 0
  store ptr %0, ptr %7, align 8
  %8 = getelementptr inbounds nuw %"struct.gmx::ArrayRefIter", ptr %4, i32 0, i32 0
  store ptr %1, ptr %8, align 8
  call void @llvm.memcpy.p0.p0.i64(ptr align 8 %5, ptr align 8 %3, i64 8, i1 false)
  call void @llvm.memcpy.p0.p0.i64(ptr align 8 %6, ptr align 8 %4, i64 8, i1 false)
  %9 = getelementptr inbounds nuw %"struct.gmx::ArrayRefIter", ptr %5, i32 0, i32 0
  %10 = load ptr, ptr %9, align 8
  %11 = getelementptr inbounds nuw %"struct.gmx::ArrayRefIter", ptr %6, i32 0, i32 0
  %12 = load ptr, ptr %11, align 8
  %13 = call noundef zeroext i1 @_ZN3gmx5boost14stl_interfaces2v1eqINS_12ArrayRefIterIKfEES6_vEEDTcmclsr6v1_dtlE16derived_iteratorfp_Eeqclsr6detailE11common_difffp_fp0_ELi0EET_T0_(ptr %10, ptr %12) #9
  %14 = xor i1 %13, true
  ret i1 %14
}

; Function Attrs: mustprogress nounwind uwtable
define linkonce_odr ptr @_ZNK3gmx8ArrayRefIKfE3endEv(ptr noundef nonnull align 8 dereferenceable(16) %0) #4 comdat align 2 {
  %2 = alloca %"struct.gmx::ArrayRefIter", align 8
  %3 = alloca ptr, align 8
  store ptr %0, ptr %3, align 8, !tbaa !15
  %4 = load ptr, ptr %3, align 8
  %5 = getelementptr inbounds nuw %"class.gmx::ArrayRef", ptr %4, i32 0, i32 1
  call void @llvm.memcpy.p0.p0.i64(ptr align 8 %2, ptr align 8 %5, i64 8, i1 false)
  %6 = getelementptr inbounds nuw %"struct.gmx::ArrayRefIter", ptr %2, i32 0, i32 0
  %7 = load ptr, ptr %6, align 8
  ret ptr %7
}

; Function Attrs: mustprogress nounwind uwtable
define linkonce_odr ptr @_ZNK3gmx8ArrayRefIKfE5beginEv(ptr noundef nonnull align 8 dereferenceable(16) %0) #4 comdat align 2 {
  %2 = alloca %"struct.gmx::ArrayRefIter", align 8
  %3 = alloca ptr, align 8
  store ptr %0, ptr %3, align 8, !tbaa !15
  %4 = load ptr, ptr %3, align 8
  %5 = getelementptr inbounds nuw %"class.gmx::ArrayRef", ptr %4, i32 0, i32 0
  call void @llvm.memcpy.p0.p0.i64(ptr align 8 %2, ptr align 8 %5, i64 8, i1 false)
  %6 = getelementptr inbounds nuw %"struct.gmx::ArrayRefIter", ptr %2, i32 0, i32 0
  %7 = load ptr, ptr %6, align 8
  ret ptr %7
}

; Function Attrs: mustprogress uwtable
define noundef double @_Z19calcZeroPointEnergyN3gmx8ArrayRefIKfEEf(ptr %0, ptr %1, float noundef %2) #0 {
  %4 = alloca %"class.gmx::ArrayRef", align 8
  %5 = alloca float, align 4
  %6 = alloca double, align 8
  %7 = alloca double, align 8
  %8 = alloca ptr, align 8
  %9 = alloca %"struct.gmx::ArrayRefIter", align 8
  %10 = alloca %"struct.gmx::ArrayRefIter", align 8
  %11 = alloca %"struct.gmx::ArrayRefIter", align 8
  %12 = alloca %"struct.gmx::ArrayRefIter", align 8
  %13 = alloca ptr, align 8
  %14 = alloca double, align 8
  %15 = getelementptr inbounds nuw { ptr, ptr }, ptr %4, i32 0, i32 0
  store ptr %0, ptr %15, align 8
  %16 = getelementptr inbounds nuw { ptr, ptr }, ptr %4, i32 0, i32 1
  store ptr %1, ptr %16, align 8
  store float %2, ptr %5, align 4, !tbaa !13
  call void @llvm.lifetime.start.p0(i64 8, ptr %6) #9
  store double 0x3D31E0381EB12BF7, ptr %6, align 8, !tbaa !4
  call void @llvm.lifetime.start.p0(i64 8, ptr %7) #9
  store double 0.000000e+00, ptr %7, align 8, !tbaa !4
  call void @llvm.lifetime.start.p0(i64 8, ptr %8) #9
  store ptr %4, ptr %8, align 8, !tbaa !15
  call void @llvm.lifetime.start.p0(i64 8, ptr %9) #9
  %17 = load ptr, ptr %8, align 8, !tbaa !15
  %18 = call ptr @_ZNK3gmx8ArrayRefIKfE5beginEv(ptr noundef nonnull align 8 dereferenceable(16) %17)
  %19 = getelementptr inbounds nuw %"struct.gmx::ArrayRefIter", ptr %9, i32 0, i32 0
  store ptr %18, ptr %19, align 8
  call void @llvm.lifetime.start.p0(i64 8, ptr %10) #9
  %20 = load ptr, ptr %8, align 8, !tbaa !15
  %21 = call ptr @_ZNK3gmx8ArrayRefIKfE3endEv(ptr noundef nonnull align 8 dereferenceable(16) %20)
  %22 = getelementptr inbounds nuw %"struct.gmx::ArrayRefIter", ptr %10, i32 0, i32 0
  store ptr %21, ptr %22, align 8
  br label %23

23:                                               ; preds = %44, %3
  call void @llvm.memcpy.p0.p0.i64(ptr align 8 %11, ptr align 8 %9, i64 8, i1 false)
  call void @llvm.memcpy.p0.p0.i64(ptr align 8 %12, ptr align 8 %10, i64 8, i1 false)
  %24 = getelementptr inbounds nuw %"struct.gmx::ArrayRefIter", ptr %11, i32 0, i32 0
  %25 = load ptr, ptr %24, align 8
  %26 = getelementptr inbounds nuw %"struct.gmx::ArrayRefIter", ptr %12, i32 0, i32 0
  %27 = load ptr, ptr %26, align 8
  %28 = call noundef zeroext i1 @_ZN3gmx5boost14stl_interfaces2v1neINS_12ArrayRefIterIKfEES6_EEDTcmclsr6v1_dtlE16derived_iteratorfp_Enteqfp_fp0_ET_T0_(ptr %25, ptr %27) #9
  br i1 %28, label %30, label %29

29:                                               ; preds = %23
  call void @llvm.lifetime.end.p0(i64 8, ptr %10) #9
  call void @llvm.lifetime.end.p0(i64 8, ptr %9) #9
  call void @llvm.lifetime.end.p0(i64 8, ptr %8) #9
  br label %46

30:                                               ; preds = %23
  call void @llvm.lifetime.start.p0(i64 8, ptr %13) #9
  %31 = call noundef nonnull align 4 dereferenceable(4) ptr @_ZNK3gmx12ArrayRefIterIKfEdeEv(ptr noundef nonnull align 8 dereferenceable(8) %9) #9
  store ptr %31, ptr %13, align 8, !tbaa !17
  call void @llvm.lifetime.start.p0(i64 8, ptr %14) #9
  %32 = load ptr, ptr %13, align 8, !tbaa !17
  %33 = load float, ptr %32, align 4, !tbaa !13
  %34 = fpext float %33 to double
  %35 = call noundef double @_Z21eigenvalueToFrequencyd(double noundef %34)
  store double %35, ptr %14, align 8, !tbaa !4
  %36 = load double, ptr %6, align 8, !tbaa !4
  %37 = fmul double 5.000000e-01, %36
  %38 = load float, ptr %5, align 4, !tbaa !13
  %39 = fpext float %38 to double
  %40 = fmul double %37, %39
  %41 = load double, ptr %14, align 8, !tbaa !4
  %42 = load double, ptr %7, align 8, !tbaa !4
  %43 = call double @llvm.fmuladd.f64(double %40, double %41, double %42)
  store double %43, ptr %7, align 8, !tbaa !4
  call void @llvm.lifetime.end.p0(i64 8, ptr %14) #9
  call void @llvm.lifetime.end.p0(i64 8, ptr %13) #9
  br label %44

44:                                               ; preds = %30
  %45 = call noundef nonnull align 8 dereferenceable(8) ptr @_ZN3gmx5boost14stl_interfaces2v118iterator_interfaceINS_12ArrayRefIterIKfEESt26random_access_iterator_tagS5_RS5_PS5_lvEppIS6_EEDTcmpLclsr3stdE7declvalIRT_EEcvlLi1Eclsr3stdE7declvalISD_EEEv(ptr noundef nonnull align 1 dereferenceable(1) %9) #9
  br label %23

46:                                               ; preds = %29
  %47 = load double, ptr %7, align 8, !tbaa !4
  call void @llvm.lifetime.end.p0(i64 8, ptr %7) #9
  call void @llvm.lifetime.end.p0(i64 8, ptr %6) #9
  ret double %47
}