; Function Attrs: mustprogress nofree nounwind memory(write, argmem: readwrite) uwtable
define noundef double @_Z19calcZeroPointEnergyN3gmx8ArrayRefIKfEEf(ptr readonly %0, ptr readnone %1, float noundef %2) local_unnamed_addr #2 {
  %.not13 = icmp eq ptr %0, %1
  br i1 %.not13, label %._crit_edge, label %.lr.ph

.lr.ph:                                           ; preds = %3
  %4 = fpext float %2 to double
  %5 = fmul double %4, 0x3D21E0381EB12BF7
  br label %6

._crit_edge:                                      ; preds = %6, %3
  %.0.lcssa = phi double [ 0.000000e+00, %3 ], [ %12, %6 ]
  ret double %.0.lcssa

6:                                                ; preds = %.lr.ph, %6
  %.015 = phi double [ 0.000000e+00, %.lr.ph ], [ %12, %6 ]
  %.sroa.0.014 = phi ptr [ %0, %.lr.ph ], [ %13, %6 ]
  %7 = load float, ptr %.sroa.0.014, align 4, !tbaa !8
  %8 = fpext float %7 to double
  %9 = fcmp ogt double %8, 0.000000e+00
  %.sroa.speculated.i = select i1 %9, double %8, double 0.000000e+00
  %10 = fmul double %.sroa.speculated.i, 0x44EA78437A00E75D
  %11 = tail call noundef double @sqrt(double noundef %10) #8, !tbaa !4
  %12 = tail call double @llvm.fmuladd.f64(double %5, double %11, double %.015)
  %13 = getelementptr inbounds nuw i8, ptr %.sroa.0.014, i64 4
  %.not = icmp eq ptr %13, %1
  br i1 %.not, label %._crit_edge, label %6
}